target datalayout = "e-m:e-p270:32:32-p271:32:32-p272:64:64-i64:64-i128:128-f80:128-n8:16:32:64-S128"
target triple = "x86_64-pc-linux-gnu"

%struct.X509_algor_st = type { ptr, ptr }

@.str.12 = private unnamed_addr constant [2 x i8] c"\0A\00", align 1
@.str.26 = private unnamed_addr constant [26 x i8] c"    Signature Algorithm: \00", align 1

; Function Attrs: nounwind uwtable
define hidden i32 @X509_signature_print(ptr noundef %0, ptr noundef %1, ptr noundef %2) #0 {
  %4 = alloca i32, align 4
  %5 = alloca ptr, align 8
  %6 = alloca ptr, align 8
  %7 = alloca ptr, align 8
  %8 = alloca i32, align 4
  %9 = alloca i32, align 4
  store ptr %0, ptr %5, align 8, !tbaa !15
  store ptr %1, ptr %6, align 8, !tbaa !70
  store ptr %2, ptr %7, align 8, !tbaa !45
  %10 = load ptr, ptr %5, align 8, !tbaa !15
  %11 = call i32 @BIO_puts(ptr noundef %10, ptr noundef @.str.26)
  %12 = icmp sle i32 %11, 0
  br i1 %12, label %13, label %14

13:                                               ; preds = %3
  store i32 0, ptr %4, align 4
  br label %50

14:                                               ; preds = %3
  %15 = load ptr, ptr %5, align 8, !tbaa !15
  %16 = load ptr, ptr %6, align 8, !tbaa !70
  %17 = getelementptr inbounds nuw %struct.X509_algor_st, ptr %16, i32 0, i32 0
  %18 = load ptr, ptr %17, align 8, !tbaa !60
  %19 = call i32 @i2a_ASN1_OBJECT(ptr noundef %15, ptr noundef %18)
  %20 = icmp sle i32 %19, 0
  br i1 %20, label %21, label %22

21:                                               ; preds = %14
  store i32 0, ptr %4, align 4
  br label %50

22:                                               ; preds = %14
  call void @llvm.lifetime.start.p0(i64 4, ptr %8) #5
  %23 = load ptr, ptr %6, align 8, !tbaa !70
  %24 = getelementptr inbounds nuw %struct.X509_algor_st, ptr %23, i32 0, i32 0
  %25 = load ptr, ptr %24, align 8, !tbaa !60
  %26 = call i32 @OBJ_obj2nid(ptr noundef %25)
  store i32 %26, ptr %8, align 4, !tbaa !17
  %27 = load i32, ptr %8, align 4, !tbaa !17
  %28 = icmp eq i32 %27, 912
  br i1 %28, label %29, label %35

29:                                               ; preds = %22
  %30 = load ptr, ptr %5, align 8, !tbaa !15
  %31 = load ptr, ptr %6, align 8, !tbaa !70
  %32 = call i32 @x509_print_rsa_pss_params(ptr noundef %30, ptr noundef %31, i32 noundef 9, ptr noundef null)
  %33 = icmp ne i32 %32, 0
  br i1 %33, label %35, label %34

34:                                               ; preds = %29
  store i32 0, ptr %4, align 4
  store i32 1, ptr %9, align 4
  br label %49

35:                                               ; preds = %29, %22
  %36 = load ptr, ptr %7, align 8, !tbaa !45
  %37 = icmp ne ptr %36, null
  br i1 %37, label %38, label %42

38:                                               ; preds = %35
  %39 = load ptr, ptr %5, align 8, !tbaa !15
  %40 = load ptr, ptr %7, align 8, !tbaa !45
  %41 = call i32 @X509_signature_dump(ptr noundef %39, ptr noundef %40, i32 noundef 9)
  store i32 %41, ptr %4, align 4
  store i32 1, ptr %9, align 4
  br label %49

42:                                               ; preds = %35
  %43 = load ptr, ptr %5, align 8, !tbaa !15
  %44 = call i32 @BIO_puts(ptr noundef %43, ptr noundef @.str.12)
  %45 = icmp sle i32 %44, 0
  br i1 %45, label %46, label %47

46:                                               ; preds = %42
  store i32 0, ptr %4, align 4
  store i32 1, ptr %9, align 4
  br label %49

47:                                               ; preds = %42
  br label %48

48:                                               ; preds = %47
  store i32 1, ptr %4, align 4
  store i32 1, ptr %9, align 4
  br label %49

49:                                               ; preds = %48, %46, %38, %34
  call void @llvm.lifetime.end.p0(i64 4, ptr %8) #5
  br label %50

50:                                               ; preds = %49, %21, %13
  %51 = load i32, ptr %4, align 4
  ret i32 %51
}