; Function Attrs: nounwind uwtable
define hidden i32 @X509_signature_print(ptr noundef %0, ptr noundef %1, ptr noundef %2) local_unnamed_addr #0 {
  %4 = tail call i32 @BIO_puts(ptr noundef %0, ptr noundef nonnull @.str.26) #5
  %5 = icmp slt i32 %4, 1
  br i1 %5, label %22, label %6

6:                                                ; preds = %3
  %7 = load ptr, ptr %1, align 8, !tbaa !40
  %8 = tail call i32 @i2a_ASN1_OBJECT(ptr noundef %0, ptr noundef %7) #5
  %9 = icmp slt i32 %8, 1
  br i1 %9, label %22, label %10

10:                                               ; preds = %6
  %11 = load ptr, ptr %1, align 8, !tbaa !40
  %12 = tail call i32 @OBJ_obj2nid(ptr noundef %11) #5
  %13 = icmp eq i32 %12, 912
  br i1 %13, label %14, label %16

14:                                               ; preds = %10
  %15 = tail call i32 @x509_print_rsa_pss_params(ptr noundef %0, ptr noundef nonnull %1, i32 noundef 9, ptr noundef null) #5
  %.not = icmp eq i32 %15, 0
  br i1 %.not, label %22, label %16

16:                                               ; preds = %14, %10
  %.not12 = icmp eq ptr %2, null
  br i1 %.not12, label %19, label %17

17:                                               ; preds = %16
  %18 = tail call i32 @X509_signature_dump(ptr noundef %0, ptr noundef nonnull %2, i32 noundef 9) #5
  br label %22

19:                                               ; preds = %16
  %20 = tail call i32 @BIO_puts(ptr noundef %0, ptr noundef nonnull @.str.12) #5
  %21 = icmp sgt i32 %20, 0
  %. = zext i1 %21 to i32
  br label %22

22:                                               ; preds = %17, %14, %19, %6, %3
  %.0 = phi i32 [ 0, %3 ], [ 0, %6 ], [ %18, %17 ], [ 0, %14 ], [ %., %19 ]
  ret i32 %.0
}